; Function Attrs: nounwind uwtable
define void @EVP_CIPHER_CTX_free(ptr noundef %0) local_unnamed_addr #0 {
  %2 = icmp eq ptr %0, null
  br i1 %2, label %5, label %3

3:                                                ; preds = %1
  %4 = tail call i32 @EVP_CIPHER_CTX_reset(ptr noundef nonnull %0)
  tail call void @CRYPTO_free(ptr noundef nonnull %0, ptr noundef nonnull @.str, i32 noundef 89) #10
  br label %5

5:                                                ; preds = %1, %3
  ret void
}